target datalayout = "e-m:e-p270:32:32-p271:32:32-p272:64:64-i64:64-i128:128-f80:128-n8:16:32:64-S128"
target triple = "x86_64-pc-linux-gnu"

%"class.zmq::msg_t" = type { %union.anon }
%union.anon = type { %struct.anon }
%struct.anon = type { ptr, [34 x i8], i8, i8, i32, %"union.zmq::msg_t::group_t" }
%"union.zmq::msg_t::group_t" = type { %struct.anon.1 }
%struct.anon.1 = type { i8, ptr }
%struct.anon.2 = type { ptr, [33 x i8], i8, i8, i8, i32, %"union.zmq::msg_t::group_t" }
%struct.anon.3 = type { ptr, ptr, [26 x i8], i8, i8, i32, %"union.zmq::msg_t::group_t" }
%"struct.zmq::msg_t::content_t" = type { ptr, i64, ptr, ptr, %"class.zmq::atomic_counter_t" }
%"class.zmq::atomic_counter_t" = type { %"struct.std::atomic", [4 x i8] }
%"struct.std::atomic" = type { %"struct.std::__atomic_base" }
%"struct.std::__atomic_base" = type { i32 }
%struct.anon.5 = type { ptr, ptr, i64, [18 x i8], i8, i8, i32, %"union.zmq::msg_t::group_t" }
%struct.anon.4 = type { ptr, ptr, [26 x i8], i8, i8, i32, %"union.zmq::msg_t::group_t" }

@stderr = external global ptr, align 8
@.str = private unnamed_addr constant [30 x i8] c"Assertion failed: %s (%s:%d)\0A\00", align 1
@.str.2 = private unnamed_addr constant [103 x i8] c"generated/home/dtcxzyw/WorkSpace/Projects/compilers/llvm-opt-benchmark/bench/libzmq/libzmq/src/msg.cpp\00", align 1
@.str.6 = private unnamed_addr constant [9 x i8] c"check ()\00", align 1
@.str.7 = private unnamed_addr constant [6 x i8] c"false\00", align 1

; Function Attrs: mustprogress nounwind uwtable
define noundef zeroext i1 @_ZNK3zmq5msg_t5checkEv(ptr noundef nonnull align 8 dereferenceable(64) %0) #0 align 2 {
  %2 = alloca ptr, align 8
  store ptr %0, ptr %2, align 8, !tbaa !3
  %3 = load ptr, ptr %2, align 8
  %4 = getelementptr inbounds nuw %"class.zmq::msg_t", ptr %3, i32 0, i32 0
  %5 = getelementptr inbounds nuw %struct.anon, ptr %4, i32 0, i32 2
  %6 = load i8, ptr %5, align 2, !tbaa !8
  %7 = zext i8 %6 to i32
  %8 = icmp sge i32 %7, 101
  br i1 %8, label %9, label %15

9:                                                ; preds = %1
  %10 = getelementptr inbounds nuw %"class.zmq::msg_t", ptr %3, i32 0, i32 0
  %11 = getelementptr inbounds nuw %struct.anon, ptr %10, i32 0, i32 2
  %12 = load i8, ptr %11, align 2, !tbaa !8
  %13 = zext i8 %12 to i32
  %14 = icmp sle i32 %13, 107
  br label %15

15:                                               ; preds = %9, %1
  %16 = phi i1 [ false, %1 ], [ %14, %9 ]
  ret i1 %16
}

; Function Attrs: mustprogress uwtable
define noundef i64 @_ZNK3zmq5msg_t4sizeEv(ptr noundef nonnull align 8 dereferenceable(64) %0) #1 align 2 {
  %2 = alloca i64, align 8
  %3 = alloca ptr, align 8
  store ptr %0, ptr %3, align 8, !tbaa !3
  %4 = load ptr, ptr %3, align 8
  br label %5

5:                                                ; preds = %1
  %6 = call noundef zeroext i1 @_ZNK3zmq5msg_t5checkEv(ptr noundef nonnull align 8 dereferenceable(64) %4)
  %7 = xor i1 %6, true
  %8 = zext i1 %7 to i64
  %9 = call i64 @llvm.expect.i64(i64 %8, i64 0)
  %10 = icmp ne i64 %9, 0
  br i1 %10, label %11, label %16

11:                                               ; preds = %5
  %12 = load ptr, ptr @stderr, align 8, !tbaa !24
  %13 = call i32 (ptr, ptr, ...) @fprintf(ptr noundef %12, ptr noundef @.str, ptr noundef @.str.6, ptr noundef @.str.2, i32 noundef 387) #14
  %14 = load ptr, ptr @stderr, align 8, !tbaa !24
  %15 = call i32 @fflush(ptr noundef %14)
  call void @_ZN3zmq9zmq_abortEPKc(ptr noundef @.str.6)
  br label %16

16:                                               ; preds = %11, %5
  br label %17

17:                                               ; preds = %16
  %18 = getelementptr inbounds nuw %"class.zmq::msg_t", ptr %4, i32 0, i32 0
  %19 = getelementptr inbounds nuw %struct.anon, ptr %18, i32 0, i32 2
  %20 = load i8, ptr %19, align 2, !tbaa !8
  %21 = zext i8 %20 to i32
  switch i32 %21, label %43 [
    i32 101, label %22
    i32 102, label %27
    i32 105, label %33
    i32 104, label %39
  ]

22:                                               ; preds = %17
  %23 = getelementptr inbounds nuw %"class.zmq::msg_t", ptr %4, i32 0, i32 0
  %24 = getelementptr inbounds nuw %struct.anon.2, ptr %23, i32 0, i32 2
  %25 = load i8, ptr %24, align 1, !tbaa !8
  %26 = zext i8 %25 to i64
  store i64 %26, ptr %2, align 8
  br label %50

27:                                               ; preds = %17
  %28 = getelementptr inbounds nuw %"class.zmq::msg_t", ptr %4, i32 0, i32 0
  %29 = getelementptr inbounds nuw %struct.anon.3, ptr %28, i32 0, i32 1
  %30 = load ptr, ptr %29, align 8, !tbaa !8
  %31 = getelementptr inbounds nuw %"struct.zmq::msg_t::content_t", ptr %30, i32 0, i32 1
  %32 = load i64, ptr %31, align 8, !tbaa !21
  store i64 %32, ptr %2, align 8
  br label %50

33:                                               ; preds = %17
  %34 = getelementptr inbounds nuw %"class.zmq::msg_t", ptr %4, i32 0, i32 0
  %35 = getelementptr inbounds nuw %struct.anon.4, ptr %34, i32 0, i32 1
  %36 = load ptr, ptr %35, align 8, !tbaa !8
  %37 = getelementptr inbounds nuw %"struct.zmq::msg_t::content_t", ptr %36, i32 0, i32 1
  %38 = load i64, ptr %37, align 8, !tbaa !21
  store i64 %38, ptr %2, align 8
  br label %50

39:                                               ; preds = %17
  %40 = getelementptr inbounds nuw %"class.zmq::msg_t", ptr %4, i32 0, i32 0
  %41 = getelementptr inbounds nuw %struct.anon.5, ptr %40, i32 0, i32 2
  %42 = load i64, ptr %41, align 8, !tbaa !8
  store i64 %42, ptr %2, align 8
  br label %50

43:                                               ; preds = %17
  br label %44

44:                                               ; preds = %43
  %45 = load ptr, ptr @stderr, align 8, !tbaa !24
  %46 = call i32 (ptr, ptr, ...) @fprintf(ptr noundef %45, ptr noundef @.str, ptr noundef @.str.7, ptr noundef @.str.2, i32 noundef 399) #14
  %47 = load ptr, ptr @stderr, align 8, !tbaa !24
  %48 = call i32 @fflush(ptr noundef %47)
  call void @_ZN3zmq9zmq_abortEPKc(ptr noundef @.str.7)
  br label %49

49:                                               ; preds = %44
  store i64 0, ptr %2, align 8
  br label %50

50:                                               ; preds = %49, %39, %33, %27, %22
  %51 = load i64, ptr %2, align 8
  ret i64 %51
}