; Function Attrs: mustprogress uwtable
define noundef i64 @_ZNK3zmq5msg_t4sizeEv(ptr noundef nonnull readonly align 8 captures(none) dereferenceable(64) %0) local_unnamed_addr #1 align 2 {
  %2 = getelementptr inbounds nuw i8, ptr %0, i64 42
  %3 = load i8, ptr %2, align 2, !tbaa !3
  %4 = add i8 %3, -101
  %spec.select.i = icmp ult i8 %4, 7
  br i1 %spec.select.i, label %10, label %5, !prof !23

5:                                                ; preds = %1
  %6 = load ptr, ptr @stderr, align 8, !tbaa !7
  %7 = tail call i32 (ptr, ptr, ...) @fprintf(ptr noundef %6, ptr noundef nonnull @.str, ptr noundef nonnull @.str.6, ptr noundef nonnull @.str.2, i32 noundef 387) #20
  %8 = load ptr, ptr @stderr, align 8, !tbaa !7
  %9 = tail call i32 @fflush(ptr noundef %8)
  tail call void @_ZN3zmq9zmq_abortEPKc(ptr noundef nonnull @.str.6)
  %.pr = load i8, ptr %2, align 2, !tbaa !3
  br label %10

10:                                               ; preds = %1, %5
  %11 = phi i8 [ %3, %1 ], [ %.pr, %5 ]
  switch i8 %11, label %29 [
    i8 101, label %12
    i8 102, label %16
    i8 105, label %21
    i8 104, label %26
  ]

12:                                               ; preds = %10
  %13 = getelementptr inbounds nuw i8, ptr %0, i64 41
  %14 = load i8, ptr %13, align 1, !tbaa !3
  %15 = zext i8 %14 to i64
  br label %34

16:                                               ; preds = %10
  %17 = getelementptr inbounds nuw i8, ptr %0, i64 8
  %18 = load ptr, ptr %17, align 8, !tbaa !3
  %19 = getelementptr inbounds nuw i8, ptr %18, i64 8
  %20 = load i64, ptr %19, align 8, !tbaa !17
  br label %34

21:                                               ; preds = %10
  %22 = getelementptr inbounds nuw i8, ptr %0, i64 8
  %23 = load ptr, ptr %22, align 8, !tbaa !3
  %24 = getelementptr inbounds nuw i8, ptr %23, i64 8
  %25 = load i64, ptr %24, align 8, !tbaa !17
  br label %34

26:                                               ; preds = %10
  %27 = getelementptr inbounds nuw i8, ptr %0, i64 16
  %28 = load i64, ptr %27, align 8, !tbaa !3
  br label %34

29:                                               ; preds = %10
  %30 = load ptr, ptr @stderr, align 8, !tbaa !7
  %31 = tail call i32 (ptr, ptr, ...) @fprintf(ptr noundef %30, ptr noundef nonnull @.str, ptr noundef nonnull @.str.7, ptr noundef nonnull @.str.2, i32 noundef 399) #20
  %32 = load ptr, ptr @stderr, align 8, !tbaa !7
  %33 = tail call i32 @fflush(ptr noundef %32)
  tail call void @_ZN3zmq9zmq_abortEPKc(ptr noundef nonnull @.str.7)
  br label %34

34:                                               ; preds = %29, %26, %21, %16, %12
  %.0 = phi i64 [ 0, %29 ], [ %28, %26 ], [ %25, %21 ], [ %20, %16 ], [ %15, %12 ]
  ret i64 %.0
}